; Function Attrs: mustprogress uwtable
define noundef zeroext i1 @_ZN6icu_776number4impl17blueprint_helpers23parseTrailingZeroOptionERKNS_13StringSegmentERNS1_10MacroPropsER10UErrorCode(ptr noundef nonnull align 8 dereferenceable(17) %0, ptr noundef nonnull align 8 dereferenceable(472) %1, ptr noundef nonnull readnone align 4 captures(none) dereferenceable(4) %2) local_unnamed_addr #1 personality ptr @__gxx_personality_v0 {
_ZN6icu_778internal23toU16StringViewNullableIA2_DsvEESt17basic_string_viewIDsSt11char_traitsIDsEERKT_.exit.i:
  %3 = alloca %"class.icu_77::UnicodeString", align 8
  %4 = alloca %"class.icu_77::number::Precision", align 8
  call void @llvm.lifetime.start.p0(i64 64, ptr nonnull %3) #18
  store ptr getelementptr inbounds nuw inrange(-16, 88) (i8, ptr @_ZTVN6icu_7713UnicodeStringE, i64 16), ptr %3, align 8, !tbaa !27
  %5 = getelementptr inbounds nuw i8, ptr %3, i64 8
  store i16 2, ptr %5, align 8, !tbaa !25
  %6 = invoke noundef nonnull align 8 dereferenceable(64) ptr @_ZN6icu_7713UnicodeString8doAppendESt17basic_string_viewIDsSt11char_traitsIDsEE(ptr noundef nonnull align 8 dereferenceable(64) %3, i64 1, ptr nonnull @.str.36)
          to label %_ZN6icu_7713UnicodeStringC2IA2_DsvEERKT_.exit unwind label %7

common.resume:                                    ; preds = %13, %7
  %common.resume.op = phi { ptr, i32 } [ %8, %7 ], [ %14, %13 ]
  resume { ptr, i32 } %common.resume.op

7:                                                ; preds = %_ZN6icu_778internal23toU16StringViewNullableIA2_DsvEESt17basic_string_viewIDsSt11char_traitsIDsEERKT_.exit.i
  %8 = landingpad { ptr, i32 }
          cleanup
  call void @_ZN6icu_7711ReplaceableD2Ev(ptr noundef nonnull align 8 dereferenceable(64) %3) #18
  br label %common.resume

_ZN6icu_7713UnicodeStringC2IA2_DsvEERKT_.exit:    ; preds = %_ZN6icu_778internal23toU16StringViewNullableIA2_DsvEESt17basic_string_viewIDsSt11char_traitsIDsEERKT_.exit.i
  %9 = invoke noundef zeroext i1 @_ZNK6icu_7713StringSegmenteqERKNS_13UnicodeStringE(ptr noundef nonnull align 8 dereferenceable(17) %0, ptr noundef nonnull align 8 dereferenceable(64) %3)
          to label %10 unwind label %13

10:                                               ; preds = %_ZN6icu_7713UnicodeStringC2IA2_DsvEERKT_.exit
  call void @_ZN6icu_7713UnicodeStringD1Ev(ptr noundef nonnull align 8 dereferenceable(64) %3) #18
  call void @llvm.lifetime.end.p0(i64 64, ptr nonnull %3) #18
  br i1 %9, label %11, label %15

11:                                               ; preds = %10
  call void @llvm.lifetime.start.p0(i64 32, ptr nonnull %4) #18
  %12 = getelementptr inbounds nuw i8, ptr %1, i64 64
  call void @_ZNK6icu_776number9Precision19trailingZeroDisplayE26UNumberTrailingZeroDisplay(ptr dead_on_unwind nonnull writable sret(%"class.icu_77::number::Precision") align 8 %4, ptr noundef nonnull align 8 dereferenceable(28) %12, i32 noundef 1)
  call void @llvm.memcpy.p0.p0.i64(ptr noundef nonnull align 8 dereferenceable(28) %12, ptr noundef nonnull align 8 dereferenceable(28) %4, i64 28, i1 false)
  call void @llvm.lifetime.end.p0(i64 32, ptr nonnull %4) #18
  br label %15

13:                                               ; preds = %_ZN6icu_7713UnicodeStringC2IA2_DsvEERKT_.exit
  %14 = landingpad { ptr, i32 }
          cleanup
  call void @_ZN6icu_7713UnicodeStringD1Ev(ptr noundef nonnull align 8 dereferenceable(64) %3) #18
  call void @llvm.lifetime.end.p0(i64 64, ptr nonnull %3) #18
  br label %common.resume

15:                                               ; preds = %10, %11
  ret i1 %9
}